; Function Attrs: mustprogress nofree nounwind willreturn memory(read, argmem: readwrite) uwtable
define noundef zeroext i1 @_ZN3g2o14CacheSE2Offset19resolveDependenciesEv(ptr nocapture noundef nonnull align 16 dereferenceable(432) %0) unnamed_addr #7 align 2 {
  %2 = getelementptr inbounds nuw i8, ptr %0, i64 16
  %3 = load ptr, ptr %2, align 16
  %4 = load ptr, ptr %3, align 8
  %5 = icmp eq ptr %4, null
  br i1 %5, label %8, label %6

6:                                                ; preds = %1
  %7 = tail call ptr @__dynamic_cast(ptr nonnull %4, ptr nonnull @_ZTIN3g2o9ParameterE, ptr nonnull @_ZTIN3g2o18ParameterSE2OffsetE, i64 0) #15
  br label %8

8:                                                ; preds = %1, %6
  %9 = phi ptr [ %7, %6 ], [ null, %1 ]
  %10 = getelementptr inbounds nuw i8, ptr %0, i64 72
  store ptr %9, ptr %10, align 8
  %11 = icmp ne ptr %9, null
  ret i1 %11
}